target datalayout = "e-m:e-p270:32:32-p271:32:32-p272:64:64-i64:64-i128:128-f80:128-n8:16:32:64-S128"
target triple = "x86_64-pc-linux-gnu"

%struct.PyModuleDef = type { %struct.PyModuleDef_Base, ptr, ptr, i64, ptr, ptr, ptr, ptr, ptr }
%struct.PyModuleDef_Base = type { %struct._object, ptr, i64, ptr }
%struct._object = type { i64, ptr }

@_ZN12_GLOBAL__N_19moduledefE = internal global %struct.PyModuleDef { %struct.PyModuleDef_Base { %struct._object { i64 1, ptr null }, ptr null, i64 0, ptr null }, ptr @_ZN12_GLOBAL__N_111kModuleNameE, ptr null, i64 0, ptr null, ptr null, ptr null, ptr null, ptr null }, align 8
@.str = private unnamed_addr constant [9 x i8] c"funcaddr\00", align 1

; Function Attrs: mustprogress uwtable
define ptr @PyInit_cross_module_interleaved_error_already_set() #1 {
  %1 = alloca ptr, align 8
  %2 = call ptr @PyModule_Create2(ptr noundef @_ZN12_GLOBAL__N_19moduledefE, i32 noundef 1013)
  store ptr %2, ptr %1, align 8
  %3 = load ptr, ptr %1, align 8
  %4 = icmp ne ptr %3, null
  br i1 %4, label %5, label %9

5:                                                ; preds = %0
  %6 = load ptr, ptr %1, align 8
  %7 = call ptr @PyLong_FromVoidPtr(ptr noundef @_ZN12_GLOBAL__N_129interleaved_error_already_setEv)
  %8 = call i32 @PyModule_AddObject(ptr noundef %6, ptr noundef @.str, ptr noundef %7)
  br label %9

9:                                                ; preds = %5, %0
  %10 = load ptr, ptr %1, align 8
  ret ptr %10
}