; Function Attrs: mustprogress uwtable
define ptr @PyInit_cross_module_interleaved_error_already_set() local_unnamed_addr #1 {
  %1 = tail call ptr @PyModule_Create2(ptr noundef nonnull @_ZN12_GLOBAL__N_19moduledefE, i32 noundef 1013)
  %.not = icmp eq ptr %1, null
  br i1 %.not, label %5, label %2

2:                                                ; preds = %0
  %3 = tail call ptr @PyLong_FromVoidPtr(ptr noundef nonnull @_ZN12_GLOBAL__N_129interleaved_error_already_setEv)
  %4 = tail call i32 @PyModule_AddObject(ptr noundef nonnull %1, ptr noundef nonnull @.str, ptr noundef %3)
  br label %5

5:                                                ; preds = %2, %0
  ret ptr %1
}